target datalayout = "e-m:e-p270:32:32-p271:32:32-p272:64:64-i64:64-i128:128-f80:128-n8:16:32:64-S128"
target triple = "x86_64-pc-linux-gnu"

%struct.Ssw_Sem_t_ = type { i32, i32, i32, i32, ptr, ptr, i32, i32, ptr, ptr }
%struct.Ssw_Man_t_ = type { ptr, i32, ptr, ptr, ptr, ptr, i32, ptr, ptr, ptr, i32, i32, i32, i32, i32, i32, i32, i32, i32, i32, i32, ptr, i32, ptr, i32, i32, i32, i32, ptr, ptr, ptr, i32, ptr, i32, i32, ptr, ptr, ptr, i32, ptr, i32, i32, i32, i32, i32, i32, i32, i32, i32, i32, i32, i32, i32, i32, i32, i32, i32, i32, i32, i32, i32, i32, i64, i64, i64, i64, i64, i64, i64, i64, i64, i64 }
%struct.Aig_Man_t_ = type { ptr, ptr, ptr, ptr, ptr, ptr, ptr, %struct.Aig_Obj_t_, i32, i32, i32, i32, i32, i32, [7 x i32], i32, ptr, i32, ptr, i32, ptr, i32, i32, i32, ptr, i32, i32, i32, i32, i32, ptr, ptr, i32, ptr, ptr, i32, ptr, ptr, i32, i32, i32, ptr, ptr, ptr, ptr, ptr, ptr, ptr, ptr, ptr, ptr, ptr, ptr, ptr, ptr, i32, ptr, ptr, ptr, ptr, i32, i64, i64, i64, ptr, ptr }
%struct.Aig_Obj_t_ = type { %union.anon, ptr, ptr, i64, i32, i32, %union.anon.0 }
%union.anon = type { ptr }
%union.anon.0 = type { ptr }
%struct.Vec_Ptr_t_ = type { i32, i32, ptr }

; Function Attrs: inlinehint nounwind uwtable
define internal void @Abc_InfoSetBit(ptr noundef %0, i32 noundef %1) #4 {
  %3 = alloca ptr, align 8
  %4 = alloca i32, align 4
  store ptr %0, ptr %3, align 8, !tbaa !56
  store i32 %1, ptr %4, align 4, !tbaa !8
  %5 = load i32, ptr %4, align 4, !tbaa !8
  %6 = and i32 %5, 31
  %7 = shl i32 1, %6
  %8 = load ptr, ptr %3, align 8, !tbaa !56
  %9 = load i32, ptr %4, align 4, !tbaa !8
  %10 = ashr i32 %9, 5
  %11 = sext i32 %10 to i64
  %12 = getelementptr inbounds i32, ptr %8, i64 %11
  %13 = load i32, ptr %12, align 4, !tbaa !8
  %14 = or i32 %13, %7
  store i32 %14, ptr %12, align 4, !tbaa !8
  ret void
}

; Function Attrs: inlinehint nounwind uwtable
define internal i32 @Abc_InfoHasBit(ptr noundef %0, i32 noundef %1) #4 {
  %3 = alloca ptr, align 8
  %4 = alloca i32, align 4
  store ptr %0, ptr %3, align 8, !tbaa !56
  store i32 %1, ptr %4, align 4, !tbaa !8
  %5 = load ptr, ptr %3, align 8, !tbaa !56
  %6 = load i32, ptr %4, align 4, !tbaa !8
  %7 = ashr i32 %6, 5
  %8 = sext i32 %7 to i64
  %9 = getelementptr inbounds i32, ptr %5, i64 %8
  %10 = load i32, ptr %9, align 4, !tbaa !8
  %11 = load i32, ptr %4, align 4, !tbaa !8
  %12 = and i32 %11, 31
  %13 = shl i32 1, %12
  %14 = and i32 %10, %13
  %15 = icmp ugt i32 %14, 0
  %16 = zext i1 %15 to i32
  ret i32 %16
}

; Function Attrs: inlinehint nounwind uwtable
define internal ptr @Vec_PtrEntry(ptr noundef %0, i32 noundef %1) #4 {
  %3 = alloca ptr, align 8
  %4 = alloca i32, align 4
  store ptr %0, ptr %3, align 8, !tbaa !48
  store i32 %1, ptr %4, align 4, !tbaa !8
  %5 = load ptr, ptr %3, align 8, !tbaa !48
  %6 = getelementptr inbounds nuw %struct.Vec_Ptr_t_, ptr %5, i32 0, i32 2
  %7 = load ptr, ptr %6, align 8, !tbaa !52
  %8 = load i32, ptr %4, align 4, !tbaa !8
  %9 = sext i32 %8 to i64
  %10 = getelementptr inbounds ptr, ptr %7, i64 %9
  %11 = load ptr, ptr %10, align 8, !tbaa !54
  ret ptr %11
}

; Function Attrs: inlinehint nounwind uwtable
define internal i32 @Saig_ManPiNum(ptr noundef %0) #4 {
  %2 = alloca ptr, align 8
  store ptr %0, ptr %2, align 8, !tbaa !47
  %3 = load ptr, ptr %2, align 8, !tbaa !47
  %4 = getelementptr inbounds nuw %struct.Aig_Man_t_, ptr %3, i32 0, i32 9
  %5 = load i32, ptr %4, align 4, !tbaa !69
  ret i32 %5
}

; Function Attrs: inlinehint nounwind uwtable
define internal i32 @Saig_ManRegNum(ptr noundef %0) #4 {
  %2 = alloca ptr, align 8
  store ptr %0, ptr %2, align 8, !tbaa !47
  %3 = load ptr, ptr %2, align 8, !tbaa !47
  %4 = getelementptr inbounds nuw %struct.Aig_Man_t_, ptr %3, i32 0, i32 8
  %5 = load i32, ptr %4, align 8, !tbaa !58
  ret i32 %5
}

; Function Attrs: nounwind uwtable
define void @Ssw_ManFilterBmcSavePattern(ptr noundef %0) #0 {
  %2 = alloca ptr, align 8
  %3 = alloca ptr, align 8
  %4 = alloca ptr, align 8
  %5 = alloca i32, align 4
  %6 = alloca i32, align 4
  store ptr %0, ptr %2, align 8, !tbaa !10
  call void @llvm.lifetime.start.p0(i64 8, ptr %3) #10
  call void @llvm.lifetime.start.p0(i64 8, ptr %4) #10
  call void @llvm.lifetime.start.p0(i64 4, ptr %5) #10
  %7 = load ptr, ptr %2, align 8, !tbaa !10
  %8 = getelementptr inbounds nuw %struct.Ssw_Sem_t_, ptr %7, i32 0, i32 7
  %9 = load i32, ptr %8, align 4, !tbaa !44
  %10 = load ptr, ptr %2, align 8, !tbaa !10
  %11 = getelementptr inbounds nuw %struct.Ssw_Sem_t_, ptr %10, i32 0, i32 6
  %12 = load i32, ptr %11, align 8, !tbaa !43
  %13 = icmp sge i32 %9, %12
  br i1 %13, label %14, label %15

14:                                               ; preds = %1
  store i32 1, ptr %6, align 4
  br label %79

15:                                               ; preds = %1
  store i32 0, ptr %5, align 4, !tbaa !8
  br label %16

16:                                               ; preds = %71, %15
  %17 = load i32, ptr %5, align 4, !tbaa !8
  %18 = load ptr, ptr %2, align 8, !tbaa !10
  %19 = getelementptr inbounds nuw %struct.Ssw_Sem_t_, ptr %18, i32 0, i32 4
  %20 = load ptr, ptr %19, align 8, !tbaa !30
  %21 = getelementptr inbounds nuw %struct.Ssw_Man_t_, ptr %20, i32 0, i32 2
  %22 = load ptr, ptr %21, align 8, !tbaa !17
  %23 = call i32 @Saig_ManRegNum(ptr noundef %22)
  %24 = icmp slt i32 %17, %23
  br i1 %24, label %25, label %42

25:                                               ; preds = %16
  %26 = load ptr, ptr %2, align 8, !tbaa !10
  %27 = getelementptr inbounds nuw %struct.Ssw_Sem_t_, ptr %26, i32 0, i32 4
  %28 = load ptr, ptr %27, align 8, !tbaa !30
  %29 = getelementptr inbounds nuw %struct.Ssw_Man_t_, ptr %28, i32 0, i32 2
  %30 = load ptr, ptr %29, align 8, !tbaa !17
  %31 = getelementptr inbounds nuw %struct.Aig_Man_t_, ptr %30, i32 0, i32 2
  %32 = load ptr, ptr %31, align 8, !tbaa !66
  %33 = load i32, ptr %5, align 4, !tbaa !8
  %34 = load ptr, ptr %2, align 8, !tbaa !10
  %35 = getelementptr inbounds nuw %struct.Ssw_Sem_t_, ptr %34, i32 0, i32 4
  %36 = load ptr, ptr %35, align 8, !tbaa !30
  %37 = getelementptr inbounds nuw %struct.Ssw_Man_t_, ptr %36, i32 0, i32 2
  %38 = load ptr, ptr %37, align 8, !tbaa !17
  %39 = call i32 @Saig_ManPiNum(ptr noundef %38)
  %40 = add nsw i32 %33, %39
  %41 = call ptr @Vec_PtrEntry(ptr noundef %32, i32 noundef %40)
  store ptr %41, ptr %4, align 8, !tbaa !40
  br label %42

42:                                               ; preds = %25, %16
  %43 = phi i1 [ false, %16 ], [ true, %25 ]
  br i1 %43, label %44, label %74

44:                                               ; preds = %42
  %45 = load ptr, ptr %2, align 8, !tbaa !10
  %46 = getelementptr inbounds nuw %struct.Ssw_Sem_t_, ptr %45, i32 0, i32 8
  %47 = load ptr, ptr %46, align 8, !tbaa !45
  %48 = load i32, ptr %5, align 4, !tbaa !8
  %49 = call ptr @Vec_PtrEntry(ptr noundef %47, i32 noundef %48)
  store ptr %49, ptr %3, align 8, !tbaa !56
  %50 = load ptr, ptr %2, align 8, !tbaa !10
  %51 = getelementptr inbounds nuw %struct.Ssw_Sem_t_, ptr %50, i32 0, i32 4
  %52 = load ptr, ptr %51, align 8, !tbaa !30
  %53 = getelementptr inbounds nuw %struct.Ssw_Man_t_, ptr %52, i32 0, i32 39
  %54 = load ptr, ptr %53, align 8, !tbaa !67
  %55 = load ptr, ptr %2, align 8, !tbaa !10
  %56 = getelementptr inbounds nuw %struct.Ssw_Sem_t_, ptr %55, i32 0, i32 4
  %57 = load ptr, ptr %56, align 8, !tbaa !30
  %58 = getelementptr inbounds nuw %struct.Ssw_Man_t_, ptr %57, i32 0, i32 2
  %59 = load ptr, ptr %58, align 8, !tbaa !17
  %60 = call i32 @Saig_ManPiNum(ptr noundef %59)
  %61 = load i32, ptr %5, align 4, !tbaa !8
  %62 = add nsw i32 %60, %61
  %63 = call i32 @Abc_InfoHasBit(ptr noundef %54, i32 noundef %62)
  %64 = icmp ne i32 %63, 0
  br i1 %64, label %65, label %70

65:                                               ; preds = %44
  %66 = load ptr, ptr %3, align 8, !tbaa !56
  %67 = load ptr, ptr %2, align 8, !tbaa !10
  %68 = getelementptr inbounds nuw %struct.Ssw_Sem_t_, ptr %67, i32 0, i32 7
  %69 = load i32, ptr %68, align 4, !tbaa !44
  call void @Abc_InfoSetBit(ptr noundef %66, i32 noundef %69)
  br label %70

70:                                               ; preds = %65, %44
  br label %71

71:                                               ; preds = %70
  %72 = load i32, ptr %5, align 4, !tbaa !8
  %73 = add nsw i32 %72, 1
  store i32 %73, ptr %5, align 4, !tbaa !8
  br label %16, !llvm.loop !68

74:                                               ; preds = %42
  %75 = load ptr, ptr %2, align 8, !tbaa !10
  %76 = getelementptr inbounds nuw %struct.Ssw_Sem_t_, ptr %75, i32 0, i32 7
  %77 = load i32, ptr %76, align 4, !tbaa !44
  %78 = add nsw i32 %77, 1
  store i32 %78, ptr %76, align 4, !tbaa !44
  store i32 0, ptr %6, align 4
  br label %79

79:                                               ; preds = %74, %14
  call void @llvm.lifetime.end.p0(i64 4, ptr %5) #10
  call void @llvm.lifetime.end.p0(i64 8, ptr %4) #10
  call void @llvm.lifetime.end.p0(i64 8, ptr %3) #10
  %80 = load i32, ptr %6, align 4
  switch i32 %80, label %82 [
    i32 0, label %81
    i32 1, label %81
  ]

81:                                               ; preds = %79, %79
  ret void

82:                                               ; preds = %79
  unreachable
}