; Function Attrs: nofree norecurse nosync nounwind memory(readwrite, inaccessiblemem: none) uwtable
define void @Ssw_ManFilterBmcSavePattern(ptr noundef captures(none) %0) local_unnamed_addr #7 {
  %2 = getelementptr inbounds nuw i8, ptr %0, i64 36
  %3 = load i32, ptr %2, align 4, !tbaa !47
  %4 = getelementptr inbounds nuw i8, ptr %0, i64 32
  %5 = load i32, ptr %4, align 8, !tbaa !46
  %.not = icmp slt i32 %3, %5
  br i1 %.not, label %.preheader, label %44

.preheader:                                       ; preds = %1
  %6 = getelementptr inbounds nuw i8, ptr %0, i64 16
  %7 = load ptr, ptr %6, align 8, !tbaa !27
  %8 = getelementptr inbounds nuw i8, ptr %7, i64 16
  %9 = load ptr, ptr %8, align 8, !tbaa !13
  %10 = getelementptr i8, ptr %9, i64 104
  %.val1720 = load i32, ptr %10, align 8, !tbaa !48
  %11 = icmp sgt i32 %.val1720, 0
  br i1 %11, label %.lr.ph, label %.critedge

.lr.ph:                                           ; preds = %.preheader
  %12 = getelementptr i8, ptr %9, i64 108
  %13 = getelementptr inbounds nuw i8, ptr %7, i64 248
  %14 = load ptr, ptr %13, align 8, !tbaa !62
  %15 = getelementptr inbounds nuw i8, ptr %0, i64 40
  br label %16

16:                                               ; preds = %.lr.ph, %39
  %.val1723 = phi i32 [ %.val1720, %.lr.ph ], [ %.val17, %39 ]
  %indvars.iv = phi i64 [ 0, %.lr.ph ], [ %indvars.iv.next, %39 ]
  %.val18 = load i32, ptr %12, align 4, !tbaa !63
  %17 = trunc nuw nsw i64 %indvars.iv to i32
  %18 = add nsw i32 %.val18, %17
  %19 = ashr i32 %18, 5
  %20 = sext i32 %19 to i64
  %21 = getelementptr inbounds i32, ptr %14, i64 %20
  %22 = load i32, ptr %21, align 4, !tbaa !23
  %23 = and i32 %18, 31
  %24 = shl nuw i32 1, %23
  %25 = and i32 %24, %22
  %.not15 = icmp eq i32 %25, 0
  br i1 %.not15, label %39, label %26

26:                                               ; preds = %16
  %27 = load ptr, ptr %15, align 8, !tbaa !50
  %28 = getelementptr i8, ptr %27, i64 8
  %.val = load ptr, ptr %28, align 8, !tbaa !39
  %29 = getelementptr inbounds nuw ptr, ptr %.val, i64 %indvars.iv
  %30 = load ptr, ptr %29, align 8, !tbaa !42
  %31 = load i32, ptr %2, align 4, !tbaa !47
  %32 = and i32 %31, 31
  %33 = shl nuw i32 1, %32
  %34 = ashr i32 %31, 5
  %35 = sext i32 %34 to i64
  %36 = getelementptr inbounds i32, ptr %30, i64 %35
  %37 = load i32, ptr %36, align 4, !tbaa !23
  %38 = or i32 %33, %37
  store i32 %38, ptr %36, align 4, !tbaa !23
  %.val17.pre = load i32, ptr %10, align 8, !tbaa !48
  br label %39

39:                                               ; preds = %16, %26
  %.val17 = phi i32 [ %.val1723, %16 ], [ %.val17.pre, %26 ]
  %indvars.iv.next = add nuw nsw i64 %indvars.iv, 1
  %40 = sext i32 %.val17 to i64
  %41 = icmp slt i64 %indvars.iv.next, %40
  br i1 %41, label %16, label %.critedge.loopexit, !llvm.loop !64

.critedge.loopexit:                               ; preds = %39
  %.pre = load i32, ptr %2, align 4, !tbaa !47
  br label %.critedge

.critedge:                                        ; preds = %.critedge.loopexit, %.preheader
  %42 = phi i32 [ %.pre, %.critedge.loopexit ], [ %3, %.preheader ]
  %43 = add nsw i32 %42, 1
  store i32 %43, ptr %2, align 4, !tbaa !47
  br label %44

44:                                               ; preds = %1, %.critedge
  ret void
}